target datalayout = "e-m:e-p270:32:32-p271:32:32-p272:64:64-i64:64-i128:128-f80:128-n8:16:32:64-S128"
target triple = "x86_64-pc-linux-gnu"

@.str.18 = private unnamed_addr constant [8 x i8] c"%s %s (\00", align 1
@.str.19 = private unnamed_addr constant [6 x i8] c"token\00", align 1
@.str.20 = private unnamed_addr constant [6 x i8] c"nterm\00", align 1
@.str.21 = private unnamed_addr constant [2 x i8] c")\00", align 1

; Function Attrs: mustprogress nounwind uwtable
define internal void @_ZL21yy_symbol_value_printP8_IO_FILE15yysymbol_kind_tPKN18cmExprParserHelper10ParserTypeEPv(ptr noundef %0, i32 noundef %1, ptr noundef %2, ptr noundef %3) #4 {
  %5 = alloca ptr, align 8
  %6 = alloca i32, align 4
  %7 = alloca ptr, align 8
  %8 = alloca ptr, align 8
  %9 = alloca ptr, align 8
  %10 = alloca i32, align 4
  store ptr %0, ptr %5, align 8, !tbaa !19
  store i32 %1, ptr %6, align 4, !tbaa !17
  store ptr %2, ptr %7, align 8, !tbaa !15
  store ptr %3, ptr %8, align 8, !tbaa !4
  call void @llvm.lifetime.start.p0(i64 8, ptr %9) #8
  %11 = load ptr, ptr %5, align 8, !tbaa !19
  store ptr %11, ptr %9, align 8, !tbaa !19
  %12 = load ptr, ptr %7, align 8, !tbaa !15
  %13 = icmp ne ptr %12, null
  br i1 %13, label %15, label %14

14:                                               ; preds = %4
  store i32 1, ptr %10, align 4
  br label %16

15:                                               ; preds = %4
  store i32 0, ptr %10, align 4
  br label %16

16:                                               ; preds = %15, %14
  call void @llvm.lifetime.end.p0(i64 8, ptr %9) #8
  %17 = load i32, ptr %10, align 4
  switch i32 %17, label %19 [
    i32 0, label %18
    i32 1, label %18
  ]

18:                                               ; preds = %16, %16
  ret void

19:                                               ; preds = %16
  unreachable
}

; Function Attrs: mustprogress nounwind uwtable
define internal noundef ptr @_ZL13yysymbol_name15yysymbol_kind_t(i32 noundef %0) #4 {
  %2 = alloca i32, align 4
  store i32 %0, ptr %2, align 4, !tbaa !17
  %3 = load i32, ptr %2, align 4, !tbaa !17
  %4 = sext i32 %3 to i64
  %5 = getelementptr inbounds [28 x ptr], ptr @_ZL7yytname, i64 0, i64 %4
  %6 = load ptr, ptr %5, align 8, !tbaa !13
  ret ptr %6
}

; Function Attrs: mustprogress uwtable
define internal void @_ZL15yy_symbol_printP8_IO_FILE15yysymbol_kind_tPKN18cmExprParserHelper10ParserTypeEPv(ptr noundef %0, i32 noundef %1, ptr noundef %2, ptr noundef %3) #0 {
  %5 = alloca ptr, align 8
  %6 = alloca i32, align 4
  %7 = alloca ptr, align 8
  %8 = alloca ptr, align 8
  store ptr %0, ptr %5, align 8, !tbaa !19
  store i32 %1, ptr %6, align 4, !tbaa !17
  store ptr %2, ptr %7, align 8, !tbaa !15
  store ptr %3, ptr %8, align 8, !tbaa !4
  %9 = load ptr, ptr %5, align 8, !tbaa !19
  %10 = load i32, ptr %6, align 4, !tbaa !17
  %11 = icmp slt i32 %10, 17
  br i1 %11, label %12, label %13

12:                                               ; preds = %4
  br label %14

13:                                               ; preds = %4
  br label %14

14:                                               ; preds = %13, %12
  %15 = phi ptr [ @.str.19, %12 ], [ @.str.20, %13 ]
  %16 = getelementptr inbounds [6 x i8], ptr %15, i64 0, i64 0
  %17 = load i32, ptr %6, align 4, !tbaa !17
  %18 = call noundef ptr @_ZL13yysymbol_name15yysymbol_kind_t(i32 noundef %17)
  %19 = call i32 (ptr, ptr, ...) @fprintf(ptr noundef %9, ptr noundef @.str.18, ptr noundef %16, ptr noundef %18) #8
  %20 = load ptr, ptr %5, align 8, !tbaa !19
  %21 = load i32, ptr %6, align 4, !tbaa !17
  %22 = load ptr, ptr %7, align 8, !tbaa !15
  %23 = load ptr, ptr %8, align 8, !tbaa !4
  call void @_ZL21yy_symbol_value_printP8_IO_FILE15yysymbol_kind_tPKN18cmExprParserHelper10ParserTypeEPv(ptr noundef %20, i32 noundef %21, ptr noundef %22, ptr noundef %23)
  %24 = load ptr, ptr %5, align 8, !tbaa !19
  %25 = call i32 (ptr, ptr, ...) @fprintf(ptr noundef %24, ptr noundef @.str.21) #8
  ret void
}