; Function Attrs: mustprogress nofree nounwind uwtable
define internal fastcc void @_ZL15yy_symbol_printP8_IO_FILE15yysymbol_kind_tPKN18cmExprParserHelper10ParserTypeEPv(ptr noundef captures(none) %0, i32 noundef range(i32 -128, 128) %1) unnamed_addr #5 {
  %3 = icmp slt i32 %1, 17
  %.str.19..str.20 = select i1 %3, ptr @.str.19, ptr @.str.20
  %4 = sext i32 %1 to i64
  %5 = getelementptr inbounds [28 x ptr], ptr @_ZL7yytname, i64 0, i64 %4
  %6 = load ptr, ptr %5, align 8, !tbaa !16
  %7 = tail call i32 (ptr, ptr, ...) @fprintf(ptr noundef %0, ptr noundef nonnull @.str.18, ptr noundef nonnull %.str.19..str.20, ptr noundef %6) #15
  %fputc = tail call i32 @fputc(i32 41, ptr %0)
  ret void
}